; Function Attrs: nounwind sspstrong uwtable
define dso_local void @tcg_gen_bitsel_vec(i32 %vece, ptr noundef %r, ptr noundef %a, ptr noundef %b, ptr noundef %c) local_unnamed_addr #0 {
entry:
  %0 = tail call align 8 ptr @llvm.threadlocal.address.p0(ptr align 8 @tcg_ctx)
  %1 = load ptr, ptr %0, align 8
  %2 = ptrtoint ptr %r to i64
  %add.ptr.i.i = getelementptr i8, ptr %1, i64 %2
  %3 = ptrtoint ptr %a to i64
  %add.ptr.i.i18 = getelementptr i8, ptr %1, i64 %3
  %4 = ptrtoint ptr %b to i64
  %add.ptr.i.i19 = getelementptr i8, ptr %1, i64 %4
  %5 = ptrtoint ptr %c to i64
  %add.ptr.i.i20 = getelementptr i8, ptr %1, i64 %5
  %bf.load = load i64, ptr %add.ptr.i.i, align 8
  %6 = trunc i64 %bf.load to i32
  %7 = lshr i32 %6, 16
  %bf.cast = and i32 %7, 255
  %bf.load4 = load i64, ptr %add.ptr.i.i18, align 8
  %8 = trunc i64 %bf.load4 to i32
  %9 = lshr i32 %8, 16
  %bf.cast7 = and i32 %9, 255
  %cmp = icmp samesign uge i32 %bf.cast7, %bf.cast
  tail call void @llvm.assume(i1 %cmp)
  %bf.load9 = load i64, ptr %add.ptr.i.i19, align 8
  %10 = trunc i64 %bf.load9 to i32
  %11 = lshr i32 %10, 16
  %bf.cast12 = and i32 %11, 255
  %cmp13 = icmp samesign uge i32 %bf.cast12, %bf.cast
  tail call void @llvm.assume(i1 %cmp13)
  %bf.load18 = load i64, ptr %add.ptr.i.i20, align 8
  %12 = trunc i64 %bf.load18 to i32
  %13 = lshr i32 %12, 16
  %bf.cast21 = and i32 %13, 255
  %cmp22 = icmp samesign uge i32 %bf.cast21, %bf.cast
  tail call void @llvm.assume(i1 %cmp22)
  %14 = load i32, ptr @cpuinfo, align 4
  %15 = and i32 %14, 6144
  %or.cond.not = icmp eq i32 %15, 6144
  br i1 %or.cond.not, label %if.then28, label %if.else

if.then28:                                        ; preds = %entry
  %16 = ptrtoint ptr %add.ptr.i.i to i64
  %17 = ptrtoint ptr %add.ptr.i.i18 to i64
  %18 = ptrtoint ptr %add.ptr.i.i19 to i64
  %19 = ptrtoint ptr %add.ptr.i.i20 to i64
  %call.i = tail call ptr @tcg_emit_op(i32 noundef 191, i32 noundef 4) #5
  %bf.load.i = load i32, ptr %call.i, align 8
  %sub.i = shl nuw nsw i32 %bf.cast, 16
  %bf.value.i = add nuw nsw i32 %sub.i, 16580608
  %bf.clear.i = and i32 %bf.load.i, 65535
  %bf.value.masked.i = and i32 %bf.value.i, 16711680
  %bf.clear4.i = or disjoint i32 %bf.clear.i, %bf.value.masked.i
  store i32 %bf.clear4.i, ptr %call.i, align 8
  %args.i = getelementptr inbounds nuw i8, ptr %call.i, i64 32
  store i64 %16, ptr %args.i, align 8
  %arrayidx7.i = getelementptr i8, ptr %call.i, i64 40
  store i64 %17, ptr %arrayidx7.i, align 8
  %arrayidx9.i = getelementptr i8, ptr %call.i, i64 48
  store i64 %18, ptr %arrayidx9.i, align 8
  %arrayidx11.i = getelementptr i8, ptr %call.i, i64 56
  store i64 %19, ptr %arrayidx11.i, align 8
  br label %if.end34

if.else:                                          ; preds = %entry
  %call33 = tail call ptr @tcg_temp_new_vec(i32 noundef %bf.cast) #5
  %20 = load ptr, ptr %0, align 8
  %21 = ptrtoint ptr %call33 to i64
  %add.ptr.i.i.i.i = getelementptr i8, ptr %20, i64 %21
  %add.ptr.i.i6.i.i = getelementptr i8, ptr %20, i64 %3
  %add.ptr.i.i7.i.i = getelementptr i8, ptr %20, i64 %4
  %bf.load.i.i = load i64, ptr %add.ptr.i.i.i.i, align 8
  %22 = trunc i64 %bf.load.i.i to i32
  %23 = lshr i32 %22, 16
  %bf.cast.i.i = and i32 %23, 255
  %bf.load3.i.i = load i64, ptr %add.ptr.i.i6.i.i, align 8
  %24 = trunc i64 %bf.load3.i.i to i32
  %25 = lshr i32 %24, 16
  %bf.cast6.i.i = and i32 %25, 255
  %cmp.i.i = icmp samesign uge i32 %bf.cast6.i.i, %bf.cast.i.i
  tail call void @llvm.assume(i1 %cmp.i.i)
  %bf.load8.i.i = load i64, ptr %add.ptr.i.i7.i.i, align 8
  %26 = trunc i64 %bf.load8.i.i to i32
  %27 = lshr i32 %26, 16
  %bf.cast11.i.i = and i32 %27, 255
  %cmp12.i.i = icmp samesign uge i32 %bf.cast11.i.i, %bf.cast.i.i
  tail call void @llvm.assume(i1 %cmp12.i.i)
  %28 = ptrtoint ptr %add.ptr.i.i.i.i to i64
  %29 = ptrtoint ptr %add.ptr.i.i6.i.i to i64
  %30 = ptrtoint ptr %add.ptr.i.i7.i.i to i64
  %call.i.i.i = tail call ptr @tcg_emit_op(i32 noundef 168, i32 noundef 3) #5
  %bf.load.i.i.i = load i32, ptr %call.i.i.i, align 8
  %sub.i.i.i = shl nuw nsw i32 %bf.cast.i.i, 16
  %bf.value.i.i.i = add nuw nsw i32 %sub.i.i.i, 16580608
  %bf.clear.i.i.i = and i32 %bf.load.i.i.i, 65535
  %bf.value.masked.i.i.i = and i32 %bf.value.i.i.i, 16711680
  %bf.clear4.i.i.i = or disjoint i32 %bf.clear.i.i.i, %bf.value.masked.i.i.i
  store i32 %bf.clear4.i.i.i, ptr %call.i.i.i, align 8
  %args.i.i.i = getelementptr inbounds nuw i8, ptr %call.i.i.i, i64 32
  store i64 %28, ptr %args.i.i.i, align 8
  %arrayidx7.i.i.i = getelementptr i8, ptr %call.i.i.i, i64 40
  store i64 %29, ptr %arrayidx7.i.i.i, align 8
  %arrayidx9.i.i.i = getelementptr i8, ptr %call.i.i.i, i64 48
  store i64 %30, ptr %arrayidx9.i.i.i, align 8
  %31 = load ptr, ptr %0, align 8
  %add.ptr.i.i.i.i21 = getelementptr i8, ptr %31, i64 %2
  %add.ptr.i.i6.i.i22 = getelementptr i8, ptr %31, i64 %5
  %add.ptr.i.i7.i.i23 = getelementptr i8, ptr %31, i64 %3
  %bf.load.i.i24 = load i64, ptr %add.ptr.i.i.i.i21, align 8
  %32 = trunc i64 %bf.load.i.i24 to i32
  %33 = lshr i32 %32, 16
  %bf.cast.i.i25 = and i32 %33, 255
  %bf.load3.i.i26 = load i64, ptr %add.ptr.i.i6.i.i22, align 8
  %34 = trunc i64 %bf.load3.i.i26 to i32
  %35 = lshr i32 %34, 16
  %bf.cast6.i.i27 = and i32 %35, 255
  %cmp.i.i28 = icmp samesign uge i32 %bf.cast6.i.i27, %bf.cast.i.i25
  tail call void @llvm.assume(i1 %cmp.i.i28)
  %bf.load8.i.i29 = load i64, ptr %add.ptr.i.i7.i.i23, align 8
  %36 = trunc i64 %bf.load8.i.i29 to i32
  %37 = lshr i32 %36, 16
  %bf.cast11.i.i30 = and i32 %37, 255
  %cmp12.i.i31 = icmp samesign uge i32 %bf.cast11.i.i30, %bf.cast.i.i25
  tail call void @llvm.assume(i1 %cmp12.i.i31)
  %38 = ptrtoint ptr %add.ptr.i.i.i.i21 to i64
  %39 = ptrtoint ptr %add.ptr.i.i6.i.i22 to i64
  %40 = ptrtoint ptr %add.ptr.i.i7.i.i23 to i64
  %call.i.i.i32 = tail call ptr @tcg_emit_op(i32 noundef 171, i32 noundef 3) #5
  %bf.load.i.i.i33 = load i32, ptr %call.i.i.i32, align 8
  %sub.i.i.i34 = shl nuw nsw i32 %bf.cast.i.i25, 16
  %bf.value.i.i.i35 = add nuw nsw i32 %sub.i.i.i34, 16580608
  %bf.clear.i.i.i36 = and i32 %bf.load.i.i.i33, 65535
  %bf.value.masked.i.i.i37 = and i32 %bf.value.i.i.i35, 16711680
  %bf.clear4.i.i.i38 = or disjoint i32 %bf.clear.i.i.i36, %bf.value.masked.i.i.i37
  store i32 %bf.clear4.i.i.i38, ptr %call.i.i.i32, align 8
  %args.i.i.i39 = getelementptr inbounds nuw i8, ptr %call.i.i.i32, i64 32
  store i64 %38, ptr %args.i.i.i39, align 8
  %arrayidx7.i.i.i40 = getelementptr i8, ptr %call.i.i.i32, i64 40
  store i64 %39, ptr %arrayidx7.i.i.i40, align 8
  %arrayidx9.i.i.i41 = getelementptr i8, ptr %call.i.i.i32, i64 48
  store i64 %40, ptr %arrayidx9.i.i.i41, align 8
  %41 = load ptr, ptr %0, align 8
  %add.ptr.i.i.i.i42 = getelementptr i8, ptr %41, i64 %2
  %add.ptr.i.i7.i.i44 = getelementptr i8, ptr %41, i64 %21
  %bf.load.i.i45 = load i64, ptr %add.ptr.i.i.i.i42, align 8
  %42 = trunc i64 %bf.load.i.i45 to i32
  %43 = lshr i32 %42, 16
  %bf.cast.i.i46 = and i32 %43, 255
  %bf.load8.i.i50 = load i64, ptr %add.ptr.i.i7.i.i44, align 8
  %44 = trunc i64 %bf.load8.i.i50 to i32
  %45 = lshr i32 %44, 16
  %bf.cast11.i.i51 = and i32 %45, 255
  %cmp12.i.i52 = icmp samesign uge i32 %bf.cast11.i.i51, %bf.cast.i.i46
  tail call void @llvm.assume(i1 %cmp12.i.i52)
  %46 = ptrtoint ptr %add.ptr.i.i.i.i42 to i64
  %47 = ptrtoint ptr %add.ptr.i.i7.i.i44 to i64
  %call.i.i.i53 = tail call ptr @tcg_emit_op(i32 noundef 169, i32 noundef 3) #5
  %bf.load.i.i.i54 = load i32, ptr %call.i.i.i53, align 8
  %sub.i.i.i55 = shl nuw nsw i32 %bf.cast.i.i46, 16
  %bf.value.i.i.i56 = add nuw nsw i32 %sub.i.i.i55, 16580608
  %bf.clear.i.i.i57 = and i32 %bf.load.i.i.i54, 65535
  %bf.value.masked.i.i.i58 = and i32 %bf.value.i.i.i56, 16711680
  %bf.clear4.i.i.i59 = or disjoint i32 %bf.value.masked.i.i.i58, %bf.clear.i.i.i57
  store i32 %bf.clear4.i.i.i59, ptr %call.i.i.i53, align 8
  %args.i.i.i60 = getelementptr inbounds nuw i8, ptr %call.i.i.i53, i64 32
  store i64 %46, ptr %args.i.i.i60, align 8
  %arrayidx7.i.i.i61 = getelementptr i8, ptr %call.i.i.i53, i64 40
  store i64 %46, ptr %arrayidx7.i.i.i61, align 8
  %arrayidx9.i.i.i62 = getelementptr i8, ptr %call.i.i.i53, i64 48
  store i64 %47, ptr %arrayidx9.i.i.i62, align 8
  tail call void @tcg_temp_free_vec(ptr noundef %call33) #5
  br label %if.end34

if.end34:                                         ; preds = %if.else, %if.then28
  ret void
}